target datalayout = "e-m:e-p270:32:32-p271:32:32-p272:64:64-i64:64-f80:128-n8:16:32:64-S128"
target triple = "x86_64-pc-linux-gnu"

%struct.student = type { [21 x i8], i32, i32, i8, i8, i32, i32 }

@.str = private unnamed_addr constant [3 x i8] c"%d\00", align 1
@.str.1 = private unnamed_addr constant [18 x i8] c"%s %d %d %c %c %d\00", align 1
@.str.2 = private unnamed_addr constant [10 x i8] c"%s\0A%d\0A%d\0A\00", align 1

; Function Attrs: noinline nounwind uwtable
define dso_local i32 @main() #0 {
  %1 = alloca i32, align 4
  %2 = alloca i32, align 4
  %3 = alloca i32, align 4
  %4 = alloca i32, align 4
  %5 = alloca i32, align 4
  %6 = alloca %struct.student*, align 8
  store i32 0, i32* %1, align 4
  %7 = call i32 (i8*, ...) @__isoc99_scanf(i8* getelementptr inbounds ([3 x i8], [3 x i8]* @.str, i64 0, i64 0), i32* %2)
  %8 = load i32, i32* %2, align 4
  %9 = sext i32 %8 to i64
  %10 = mul i64 16, %9
  %11 = load i32, i32* %2, align 4
  %12 = sext i32 %11 to i64
  %13 = mul i64 23, %12
  %14 = add i64 %10, %13
  %15 = call noalias i8* @malloc(i64 %14) #3
  %16 = bitcast i8* %15 to %struct.student*
  store %struct.student* %16, %struct.student** %6, align 8
  store i32 0, i32* %3, align 4
  br label %17

17:                                               ; preds = %59, %0
  %18 = load i32, i32* %3, align 4
  %19 = load i32, i32* %2, align 4
  %20 = icmp slt i32 %18, %19
  br i1 %20, label %21, label %62

21:                                               ; preds = %17
  %22 = load %struct.student*, %struct.student** %6, align 8
  %23 = load i32, i32* %3, align 4
  %24 = sext i32 %23 to i64
  %25 = getelementptr inbounds %struct.student, %struct.student* %22, i64 %24
  %26 = getelementptr inbounds %struct.student, %struct.student* %25, i32 0, i32 0
  %27 = getelementptr inbounds [21 x i8], [21 x i8]* %26, i64 0, i64 0
  %28 = load %struct.student*, %struct.student** %6, align 8
  %29 = load i32, i32* %3, align 4
  %30 = sext i32 %29 to i64
  %31 = getelementptr inbounds %struct.student, %struct.student* %28, i64 %30
  %32 = getelementptr inbounds %struct.student, %struct.student* %31, i32 0, i32 1
  %33 = load %struct.student*, %struct.student** %6, align 8
  %34 = load i32, i32* %3, align 4
  %35 = sext i32 %34 to i64
  %36 = getelementptr inbounds %struct.student, %struct.student* %33, i64 %35
  %37 = getelementptr inbounds %struct.student, %struct.student* %36, i32 0, i32 2
  %38 = load %struct.student*, %struct.student** %6, align 8
  %39 = load i32, i32* %3, align 4
  %40 = sext i32 %39 to i64
  %41 = getelementptr inbounds %struct.student, %struct.student* %38, i64 %40
  %42 = getelementptr inbounds %struct.student, %struct.student* %41, i32 0, i32 3
  %43 = load %struct.student*, %struct.student** %6, align 8
  %44 = load i32, i32* %3, align 4
  %45 = sext i32 %44 to i64
  %46 = getelementptr inbounds %struct.student, %struct.student* %43, i64 %45
  %47 = getelementptr inbounds %struct.student, %struct.student* %46, i32 0, i32 4
  %48 = load %struct.student*, %struct.student** %6, align 8
  %49 = load i32, i32* %3, align 4
  %50 = sext i32 %49 to i64
  %51 = getelementptr inbounds %struct.student, %struct.student* %48, i64 %50
  %52 = getelementptr inbounds %struct.student, %struct.student* %51, i32 0, i32 5
  %53 = call i32 (i8*, ...) @__isoc99_scanf(i8* getelementptr inbounds ([18 x i8], [18 x i8]* @.str.1, i64 0, i64 0), i8* %27, i32* %32, i32* %37, i8* %42, i8* %47, i32* %52)
  %54 = load %struct.student*, %struct.student** %6, align 8
  %55 = load i32, i32* %3, align 4
  %56 = sext i32 %55 to i64
  %57 = getelementptr inbounds %struct.student, %struct.student* %54, i64 %56
  %58 = getelementptr inbounds %struct.student, %struct.student* %57, i32 0, i32 6
  store i32 0, i32* %58, align 4
  br label %59

59:                                               ; preds = %21
  %60 = load i32, i32* %3, align 4
  %61 = add nsw i32 %60, 1
  store i32 %61, i32* %3, align 4
  br label %17

62:                                               ; preds = %17
  store i32 0, i32* %3, align 4
  br label %63

63:                                               ; preds = %182, %62
  %64 = load i32, i32* %3, align 4
  %65 = load i32, i32* %2, align 4
  %66 = icmp slt i32 %64, %65
  br i1 %66, label %67, label %185

67:                                               ; preds = %63
  %68 = load %struct.student*, %struct.student** %6, align 8
  %69 = load i32, i32* %3, align 4
  %70 = sext i32 %69 to i64
  %71 = getelementptr inbounds %struct.student, %struct.student* %68, i64 %70
  %72 = getelementptr inbounds %struct.student, %struct.student* %71, i32 0, i32 1
  %73 = load i32, i32* %72, align 4
  %74 = icmp sgt i32 %73, 80
  br i1 %74, label %75, label %91

75:                                               ; preds = %67
  %76 = load %struct.student*, %struct.student** %6, align 8
  %77 = load i32, i32* %3, align 4
  %78 = sext i32 %77 to i64
  %79 = getelementptr inbounds %struct.student, %struct.student* %76, i64 %78
  %80 = getelementptr inbounds %struct.student, %struct.student* %79, i32 0, i32 5
  %81 = load i32, i32* %80, align 4
  %82 = icmp sgt i32 %81, 0
  br i1 %82, label %83, label %91

83:                                               ; preds = %75
  %84 = load %struct.student*, %struct.student** %6, align 8
  %85 = load i32, i32* %3, align 4
  %86 = sext i32 %85 to i64
  %87 = getelementptr inbounds %struct.student, %struct.student* %84, i64 %86
  %88 = getelementptr inbounds %struct.student, %struct.student* %87, i32 0, i32 6
  %89 = load i32, i32* %88, align 4
  %90 = add nsw i32 %89, 8000
  store i32 %90, i32* %88, align 4
  br label %91

91:                                               ; preds = %83, %75, %67
  %92 = load %struct.student*, %struct.student** %6, align 8
  %93 = load i32, i32* %3, align 4
  %94 = sext i32 %93 to i64
  %95 = getelementptr inbounds %struct.student, %struct.student* %92, i64 %94
  %96 = getelementptr inbounds %struct.student, %struct.student* %95, i32 0, i32 1
  %97 = load i32, i32* %96, align 4
  %98 = icmp sgt i32 %97, 85
  br i1 %98, label %99, label %115

99:                                               ; preds = %91
  %100 = load %struct.student*, %struct.student** %6, align 8
  %101 = load i32, i32* %3, align 4
  %102 = sext i32 %101 to i64
  %103 = getelementptr inbounds %struct.student, %struct.student* %100, i64 %102
  %104 = getelementptr inbounds %struct.student, %struct.student* %103, i32 0, i32 2
  %105 = load i32, i32* %104, align 4
  %106 = icmp sgt i32 %105, 80
  br i1 %106, label %107, label %115

107:                                              ; preds = %99
  %108 = load %struct.student*, %struct.student** %6, align 8
  %109 = load i32, i32* %3, align 4
  %110 = sext i32 %109 to i64
  %111 = getelementptr inbounds %struct.student, %struct.student* %108, i64 %110
  %112 = getelementptr inbounds %struct.student, %struct.student* %111, i32 0, i32 6
  %113 = load i32, i32* %112, align 4
  %114 = add nsw i32 %113, 4000
  store i32 %114, i32* %112, align 4
  br label %115

115:                                              ; preds = %107, %99, %91
  %116 = load %struct.student*, %struct.student** %6, align 8
  %117 = load i32, i32* %3, align 4
  %118 = sext i32 %117 to i64
  %119 = getelementptr inbounds %struct.student, %struct.student* %116, i64 %118
  %120 = getelementptr inbounds %struct.student, %struct.student* %119, i32 0, i32 1
  %121 = load i32, i32* %120, align 4
  %122 = icmp sgt i32 %121, 90
  br i1 %122, label %123, label %131

123:                                              ; preds = %115
  %124 = load %struct.student*, %struct.student** %6, align 8
  %125 = load i32, i32* %3, align 4
  %126 = sext i32 %125 to i64
  %127 = getelementptr inbounds %struct.student, %struct.student* %124, i64 %126
  %128 = getelementptr inbounds %struct.student, %struct.student* %127, i32 0, i32 6
  %129 = load i32, i32* %128, align 4
  %130 = add nsw i32 %129, 2000
  store i32 %130, i32* %128, align 4
  br label %131

131:                                              ; preds = %123, %115
  %132 = load %struct.student*, %struct.student** %6, align 8
  %133 = load i32, i32* %3, align 4
  %134 = sext i32 %133 to i64
  %135 = getelementptr inbounds %struct.student, %struct.student* %132, i64 %134
  %136 = getelementptr inbounds %struct.student, %struct.student* %135, i32 0, i32 1
  %137 = load i32, i32* %136, align 4
  %138 = icmp sgt i32 %137, 85
  br i1 %138, label %139, label %156

139:                                              ; preds = %131
  %140 = load %struct.student*, %struct.student** %6, align 8
  %141 = load i32, i32* %3, align 4
  %142 = sext i32 %141 to i64
  %143 = getelementptr inbounds %struct.student, %struct.student* %140, i64 %142
  %144 = getelementptr inbounds %struct.student, %struct.student* %143, i32 0, i32 4
  %145 = load i8, i8* %144, align 1
  %146 = sext i8 %145 to i32
  %147 = icmp eq i32 %146, 89
  br i1 %147, label %148, label %156

148:                                              ; preds = %139
  %149 = load %struct.student*, %struct.student** %6, align 8
  %150 = load i32, i32* %3, align 4
  %151 = sext i32 %150 to i64
  %152 = getelementptr inbounds %struct.student, %struct.student* %149, i64 %151
  %153 = getelementptr inbounds %struct.student, %struct.student* %152, i32 0, i32 6
  %154 = load i32, i32* %153, align 4
  %155 = add nsw i32 %154, 1000
  store i32 %155, i32* %153, align 4
  br label %156

156:                                              ; preds = %148, %139, %131
  %157 = load %struct.student*, %struct.student** %6, align 8
  %158 = load i32, i32* %3, align 4
  %159 = sext i32 %158 to i64
  %160 = getelementptr inbounds %struct.student, %struct.student* %157, i64 %159
  %161 = getelementptr inbounds %struct.student, %struct.student* %160, i32 0, i32 2
  %162 = load i32, i32* %161, align 4
  %163 = icmp sgt i32 %162, 80
  br i1 %163, label %164, label %181

164:                                              ; preds = %156
  %165 = load %struct.student*, %struct.student** %6, align 8
  %166 = load i32, i32* %3, align 4
  %167 = sext i32 %166 to i64
  %168 = getelementptr inbounds %struct.student, %struct.student* %165, i64 %167
  %169 = getelementptr inbounds %struct.student, %struct.student* %168, i32 0, i32 3
  %170 = load i8, i8* %169, align 4
  %171 = sext i8 %170 to i32
  %172 = icmp eq i32 %171, 89
  br i1 %172, label %173, label %181

173:                                              ; preds = %164
  %174 = load %struct.student*, %struct.student** %6, align 8
  %175 = load i32, i32* %3, align 4
  %176 = sext i32 %175 to i64
  %177 = getelementptr inbounds %struct.student, %struct.student* %174, i64 %176
  %178 = getelementptr inbounds %struct.student, %struct.student* %177, i32 0, i32 6
  %179 = load i32, i32* %178, align 4
  %180 = add nsw i32 %179, 850
  store i32 %180, i32* %178, align 4
  br label %181

181:                                              ; preds = %173, %164, %156
  br label %182

182:                                              ; preds = %181
  %183 = load i32, i32* %3, align 4
  %184 = add nsw i32 %183, 1
  store i32 %184, i32* %3, align 4
  br label %63

185:                                              ; preds = %63
  %186 = load %struct.student*, %struct.student** %6, align 8
  %187 = getelementptr inbounds %struct.student, %struct.student* %186, i64 0
  %188 = getelementptr inbounds %struct.student, %struct.student* %187, i32 0, i32 6
  %189 = load i32, i32* %188, align 4
  store i32 %189, i32* %4, align 4
  store i32 0, i32* %5, align 4
  store i32 0, i32* %3, align 4
  br label %190

190:                                              ; preds = %219, %185
  %191 = load i32, i32* %3, align 4
  %192 = load i32, i32* %2, align 4
  %193 = icmp slt i32 %191, %192
  br i1 %193, label %194, label %222

194:                                              ; preds = %190
  %195 = load %struct.student*, %struct.student** %6, align 8
  %196 = load i32, i32* %3, align 4
  %197 = sext i32 %196 to i64
  %198 = getelementptr inbounds %struct.student, %struct.student* %195, i64 %197
  %199 = getelementptr inbounds %struct.student, %struct.student* %198, i32 0, i32 6
  %200 = load i32, i32* %199, align 4
  %201 = load i32, i32* %4, align 4
  %202 = icmp sgt i32 %200, %201
  br i1 %202, label %203, label %210

203:                                              ; preds = %194
  %204 = load %struct.student*, %struct.student** %6, align 8
  %205 = load i32, i32* %3, align 4
  %206 = sext i32 %205 to i64
  %207 = getelementptr inbounds %struct.student, %struct.student* %204, i64 %206
  %208 = getelementptr inbounds %struct.student, %struct.student* %207, i32 0, i32 6
  %209 = load i32, i32* %208, align 4
  store i32 %209, i32* %4, align 4
  br label %210

210:                                              ; preds = %203, %194
  %211 = load %struct.student*, %struct.student** %6, align 8
  %212 = load i32, i32* %3, align 4
  %213 = sext i32 %212 to i64
  %214 = getelementptr inbounds %struct.student, %struct.student* %211, i64 %213
  %215 = getelementptr inbounds %struct.student, %struct.student* %214, i32 0, i32 6
  %216 = load i32, i32* %215, align 4
  %217 = load i32, i32* %5, align 4
  %218 = add nsw i32 %217, %216
  store i32 %218, i32* %5, align 4
  br label %219

219:                                              ; preds = %210
  %220 = load i32, i32* %3, align 4
  %221 = add nsw i32 %220, 1
  store i32 %221, i32* %3, align 4
  br label %190

222:                                              ; preds = %190
  store i32 0, i32* %3, align 4
  br label %223

223:                                              ; preds = %247, %222
  %224 = load i32, i32* %3, align 4
  %225 = load i32, i32* %2, align 4
  %226 = icmp slt i32 %224, %225
  br i1 %226, label %227, label %250

227:                                              ; preds = %223
  %228 = load i32, i32* %4, align 4
  %229 = load %struct.student*, %struct.student** %6, align 8
  %230 = load i32, i32* %3, align 4
  %231 = sext i32 %230 to i64
  %232 = getelementptr inbounds %struct.student, %struct.student* %229, i64 %231
  %233 = getelementptr inbounds %struct.student, %struct.student* %232, i32 0, i32 6
  %234 = load i32, i32* %233, align 4
  %235 = icmp eq i32 %228, %234
  br i1 %235, label %236, label %246

236:                                              ; preds = %227
  %237 = load %struct.student*, %struct.student** %6, align 8
  %238 = load i32, i32* %3, align 4
  %239 = sext i32 %238 to i64
  %240 = getelementptr inbounds %struct.student, %struct.student* %237, i64 %239
  %241 = getelementptr inbounds %struct.student, %struct.student* %240, i32 0, i32 0
  %242 = getelementptr inbounds [21 x i8], [21 x i8]* %241, i64 0, i64 0
  %243 = load i32, i32* %4, align 4
  %244 = load i32, i32* %5, align 4
  %245 = call i32 (i8*, ...) @printf(i8* getelementptr inbounds ([10 x i8], [10 x i8]* @.str.2, i64 0, i64 0), i8* %242, i32 %243, i32 %244)
  br label %250

246:                                              ; preds = %227
  br label %247

247:                                              ; preds = %246
  %248 = load i32, i32* %3, align 4
  %249 = add nsw i32 %248, 1
  store i32 %249, i32* %3, align 4
  br label %223

250:                                              ; preds = %236, %223
  ret i32 0
}